; Function Attrs: mustprogress nounwind uwtable
define dso_local noundef zeroext i1 @_ZN5clang6driver6Driver17GetReleaseVersionEN4llvm9StringRefERjS4_S4_Rb(ptr %0, i64 %1, ptr nocapture noundef nonnull writeonly align 4 dereferenceable(4) %2, ptr nocapture noundef nonnull writeonly align 4 dereferenceable(4) %3, ptr nocapture noundef nonnull writeonly align 4 dereferenceable(4) %4, ptr nocapture noundef nonnull writeonly align 1 dereferenceable(1) %5) local_unnamed_addr #0 align 2 {
  %7 = alloca i64, align 8
  %8 = alloca i64, align 8
  %9 = alloca i64, align 8
  %10 = alloca %"class.llvm::StringRef", align 8
  store ptr %0, ptr %10, align 8
  %11 = getelementptr inbounds nuw i8, ptr %10, i64 8
  store i64 %1, ptr %11, align 8
  store i8 0, ptr %5, align 1
  store i32 0, ptr %4, align 4
  store i32 0, ptr %3, align 4
  store i32 0, ptr %2, align 4
  %12 = icmp eq i64 %1, 0
  br i1 %12, label %_ZN4llvm9StringRef13consume_frontES0_.exit.thread, label %13

13:                                               ; preds = %6
  call void @llvm.lifetime.start.p0(i64 8, ptr nonnull %9)
  %14 = call noundef zeroext i1 @_ZN4llvm22consumeUnsignedIntegerERNS_9StringRefEjRy(ptr noundef nonnull align 8 dereferenceable(16) %10, i32 noundef 10, ptr noundef nonnull align 8 dereferenceable(8) %9) #30
  br i1 %14, label %_ZN4llvm9StringRef14consumeIntegerIjEEbjRT_.exit.thread, label %15

15:                                               ; preds = %13
  %16 = load i64, ptr %9, align 8
  %.not.i = icmp ult i64 %16, 4294967296
  br i1 %.not.i, label %17, label %_ZN4llvm9StringRef14consumeIntegerIjEEbjRT_.exit.thread

_ZN4llvm9StringRef14consumeIntegerIjEEbjRT_.exit.thread: ; preds = %15, %13
  call void @llvm.lifetime.end.p0(i64 8, ptr nonnull %9)
  br label %_ZN4llvm9StringRef13consume_frontES0_.exit.thread

17:                                               ; preds = %15
  %18 = trunc nuw i64 %16 to i32
  store i32 %18, ptr %2, align 4
  call void @llvm.lifetime.end.p0(i64 8, ptr nonnull %9)
  %19 = load i64, ptr %11, align 8
  %20 = icmp eq i64 %19, 0
  br i1 %20, label %_ZN4llvm9StringRef13consume_frontES0_.exit.thread, label %_ZNK4llvm9StringRef11starts_withES0_.exit.i

_ZNK4llvm9StringRef11starts_withES0_.exit.i:      ; preds = %17
  %.pre.i = load ptr, ptr %10, align 8
  %lhsc = load i8, ptr %.pre.i, align 1
  %21 = icmp eq i8 %lhsc, 46
  br i1 %21, label %22, label %_ZN4llvm9StringRef13consume_frontES0_.exit.thread

22:                                               ; preds = %_ZNK4llvm9StringRef11starts_withES0_.exit.i
  %23 = getelementptr inbounds i8, ptr %.pre.i, i64 1
  %24 = add i64 %19, -1
  store ptr %23, ptr %10, align 8
  store i64 %24, ptr %11, align 8
  call void @llvm.lifetime.start.p0(i64 8, ptr nonnull %8)
  %25 = call noundef zeroext i1 @_ZN4llvm22consumeUnsignedIntegerERNS_9StringRefEjRy(ptr noundef nonnull align 8 dereferenceable(16) %10, i32 noundef 10, ptr noundef nonnull align 8 dereferenceable(8) %8) #30
  br i1 %25, label %_ZN4llvm9StringRef14consumeIntegerIjEEbjRT_.exit11.thread, label %26

26:                                               ; preds = %22
  %27 = load i64, ptr %8, align 8
  %.not.i9 = icmp ult i64 %27, 4294967296
  br i1 %.not.i9, label %28, label %_ZN4llvm9StringRef14consumeIntegerIjEEbjRT_.exit11.thread

_ZN4llvm9StringRef14consumeIntegerIjEEbjRT_.exit11.thread: ; preds = %26, %22
  call void @llvm.lifetime.end.p0(i64 8, ptr nonnull %8)
  br label %_ZN4llvm9StringRef13consume_frontES0_.exit.thread

28:                                               ; preds = %26
  %29 = trunc nuw i64 %27 to i32
  store i32 %29, ptr %3, align 4
  call void @llvm.lifetime.end.p0(i64 8, ptr nonnull %8)
  %30 = load i64, ptr %11, align 8
  %31 = icmp eq i64 %30, 0
  br i1 %31, label %_ZN4llvm9StringRef13consume_frontES0_.exit.thread, label %_ZNK4llvm9StringRef11starts_withES0_.exit.i14

_ZNK4llvm9StringRef11starts_withES0_.exit.i14:    ; preds = %28
  %.pre.i13 = load ptr, ptr %10, align 8
  %lhsc26 = load i8, ptr %.pre.i13, align 1
  %32 = icmp eq i8 %lhsc26, 46
  br i1 %32, label %33, label %_ZN4llvm9StringRef13consume_frontES0_.exit.thread

33:                                               ; preds = %_ZNK4llvm9StringRef11starts_withES0_.exit.i14
  %34 = getelementptr inbounds i8, ptr %.pre.i13, i64 1
  %35 = add i64 %30, -1
  store ptr %34, ptr %10, align 8
  store i64 %35, ptr %11, align 8
  call void @llvm.lifetime.start.p0(i64 8, ptr nonnull %7)
  %36 = call noundef zeroext i1 @_ZN4llvm22consumeUnsignedIntegerERNS_9StringRefEjRy(ptr noundef nonnull align 8 dereferenceable(16) %10, i32 noundef 10, ptr noundef nonnull align 8 dereferenceable(8) %7) #30
  br i1 %36, label %_ZN4llvm9StringRef14consumeIntegerIjEEbjRT_.exit20.thread, label %37

37:                                               ; preds = %33
  %38 = load i64, ptr %7, align 8
  %.not.i18 = icmp ult i64 %38, 4294967296
  br i1 %.not.i18, label %39, label %_ZN4llvm9StringRef14consumeIntegerIjEEbjRT_.exit20.thread

_ZN4llvm9StringRef14consumeIntegerIjEEbjRT_.exit20.thread: ; preds = %37, %33
  call void @llvm.lifetime.end.p0(i64 8, ptr nonnull %7)
  br label %_ZN4llvm9StringRef13consume_frontES0_.exit.thread

39:                                               ; preds = %37
  %40 = trunc nuw i64 %38 to i32
  store i32 %40, ptr %4, align 4
  call void @llvm.lifetime.end.p0(i64 8, ptr nonnull %7)
  %41 = load i64, ptr %11, align 8
  %42 = icmp eq i64 %41, 0
  br i1 %42, label %_ZN4llvm9StringRef13consume_frontES0_.exit.thread, label %43

43:                                               ; preds = %39
  store i8 1, ptr %5, align 1
  br label %_ZN4llvm9StringRef13consume_frontES0_.exit.thread

_ZN4llvm9StringRef13consume_frontES0_.exit.thread: ; preds = %_ZNK4llvm9StringRef11starts_withES0_.exit.i14, %_ZNK4llvm9StringRef11starts_withES0_.exit.i, %_ZN4llvm9StringRef14consumeIntegerIjEEbjRT_.exit20.thread, %_ZN4llvm9StringRef14consumeIntegerIjEEbjRT_.exit11.thread, %_ZN4llvm9StringRef14consumeIntegerIjEEbjRT_.exit.thread, %39, %43, %28, %17, %6
  %.0 = phi i1 [ false, %6 ], [ true, %17 ], [ true, %28 ], [ true, %43 ], [ true, %39 ], [ false, %_ZN4llvm9StringRef14consumeIntegerIjEEbjRT_.exit.thread ], [ false, %_ZN4llvm9StringRef14consumeIntegerIjEEbjRT_.exit11.thread ], [ false, %_ZN4llvm9StringRef14consumeIntegerIjEEbjRT_.exit20.thread ], [ false, %_ZNK4llvm9StringRef11starts_withES0_.exit.i ], [ false, %_ZNK4llvm9StringRef11starts_withES0_.exit.i14 ]
  ret i1 %.0
}